; Function Attrs: mustprogress nounwind uwtable
define dso_local void @_ZN4llvm9misexpect27checkBackendInstrumentationERNS_11InstructionENS_8ArrayRefIjEE(ptr noundef nonnull align 8 dereferenceable(72) %0, ptr %1, i64 %2) local_unnamed_addr #0 {
  %4 = alloca %"class.llvm::SmallVector.14", align 8
  %5 = tail call noundef zeroext i1 @_ZN4llvm21hasBranchWeightOriginERKNS_11InstructionE(ptr noundef nonnull align 8 dereferenceable(72) %0) #11
  br i1 %5, label %6, label %_ZN4llvm11SmallVectorIjLj12EED2Ev.exit

6:                                                ; preds = %3
  %7 = getelementptr inbounds nuw i8, ptr %4, i64 16
  call void @_ZN4llvm15SmallVectorBaseIjEC2EPvm(ptr noundef nonnull align 8 dereferenceable(64) %4, ptr noundef nonnull %7, i64 noundef 12) #11
  %8 = call noundef zeroext i1 @_ZN4llvm20extractBranchWeightsERKNS_11InstructionERNS_15SmallVectorImplIjEE(ptr noundef nonnull align 8 dereferenceable(72) %0, ptr noundef nonnull align 8 dereferenceable(16) %4) #11
  br i1 %8, label %9, label %12

9:                                                ; preds = %6
  %10 = load ptr, ptr %4, align 8
  %11 = call noundef i64 @_ZNK4llvm15SmallVectorBaseIjE4sizeEv(ptr noundef nonnull align 8 dereferenceable(16) %4) #11
  call void @_ZN4llvm9misexpect15verifyMisExpectERNS_11InstructionENS_8ArrayRefIjEES4_(ptr noundef nonnull align 8 dereferenceable(72) %0, ptr %1, i64 %2, ptr %10, i64 %11)
  br label %12

12:                                               ; preds = %6, %9
  %13 = call noundef i64 @_ZNK4llvm15SmallVectorBaseIjE4sizeEv(ptr noundef nonnull align 8 dereferenceable(64) %4) #11
  %14 = load ptr, ptr %4, align 8
  %15 = icmp eq ptr %14, %7
  br i1 %15, label %_ZN4llvm11SmallVectorIjLj12EED2Ev.exit, label %16

16:                                               ; preds = %12
  call void @free(ptr noundef %14) #11
  br label %_ZN4llvm11SmallVectorIjLj12EED2Ev.exit

_ZN4llvm11SmallVectorIjLj12EED2Ev.exit:           ; preds = %16, %12, %3
  ret void
}